target datalayout = "e-m:e-p270:32:32-p271:32:32-p272:64:64-i64:64-i128:128-f80:128-n8:16:32:64-S128"
target triple = "x86_64-unknown-linux-gnu"

%"class.zmq::ws_decoder_t" = type { %"class.zmq::decoder_base_t", [8 x i8], i8, %"class.zmq::msg_t", i8, i64, i8, i64, i32, [4 x i8] }
%"class.zmq::decoder_base_t" = type { %"class.zmq::i_decoder", { i64, i64 }, ptr, i64, %"class.zmq::shared_message_memory_allocator", ptr }
%"class.zmq::i_decoder" = type { ptr }
%"class.zmq::shared_message_memory_allocator" = type { ptr, i64, i64, ptr, i64 }
%"class.zmq::msg_t" = type { %union.anon }
%union.anon = type { %struct.anon }
%struct.anon = type { ptr, [34 x i8], i8, i8, i32, %"union.zmq::msg_t::group_t" }
%"union.zmq::msg_t::group_t" = type { %struct.anon.1 }
%struct.anon.1 = type { i8, ptr }

@stderr = external global ptr, align 8
@.str = private unnamed_addr constant [12 x i8] c"%s (%s:%d)\0A\00", align 1
@.str.1 = private unnamed_addr constant [110 x i8] c"generated/home/dtcxzyw/WorkSpace/Projects/compilers/llvm-opt-benchmark/bench/libzmq/libzmq/src/ws_decoder.cpp\00", align 1
@_ZTVN3zmq9i_decoderE = linkonce_odr unnamed_addr constant { [8 x ptr] } { [8 x ptr] [ptr null, ptr @_ZTIN3zmq9i_decoderE, ptr @_ZN3zmq9i_decoderD2Ev, ptr @_ZN3zmq9i_decoderD0Ev, ptr @__cxa_pure_virtual, ptr @__cxa_pure_virtual, ptr @__cxa_pure_virtual, ptr @__cxa_pure_virtual] }, comdat, align 8

; Function Attrs: mustprogress nounwind uwtable
define linkonce_odr void @_ZN3zmq9i_decoderD2Ev(ptr noundef nonnull align 8 dereferenceable(8) %this) unnamed_addr #5 comdat align 2 {
entry:
  %this.addr = alloca ptr, align 8
  store ptr %this, ptr %this.addr, align 8
  ret void
}

; Function Attrs: mustprogress nounwind uwtable
define linkonce_odr void @_ZN3zmq9i_decoderC2Ev(ptr noundef nonnull align 8 dereferenceable(8) %this) unnamed_addr #5 comdat align 2 {
entry:
  %this.addr = alloca ptr, align 8
  store ptr %this, ptr %this.addr, align 8
  %this1 = load ptr, ptr %this.addr, align 8
  store ptr getelementptr inbounds ({ [8 x ptr] }, ptr @_ZTVN3zmq9i_decoderE, i32 0, i32 0, i32 2), ptr %this1, align 8
  ret void
}

; Function Attrs: mustprogress nounwind uwtable
define linkonce_odr void @_ZN3zmq14decoder_base_tINS_12ws_decoder_tENS_31shared_message_memory_allocatorEE9next_stepEPvmMS1_FiPKhE(ptr noundef nonnull align 8 dereferenceable(88) %this, ptr noundef %read_pos_, i64 noundef %to_read_, i64 %next_.coerce0, i64 %next_.coerce1) #5 comdat align 2 {
entry:
  %next_ = alloca { i64, i64 }, align 8
  %this.addr = alloca ptr, align 8
  %read_pos_.addr = alloca ptr, align 8
  %to_read_.addr = alloca i64, align 8
  %next_.addr = alloca { i64, i64 }, align 8
  %0 = getelementptr inbounds { i64, i64 }, ptr %next_, i32 0, i32 0
  store i64 %next_.coerce0, ptr %0, align 8
  %1 = getelementptr inbounds { i64, i64 }, ptr %next_, i32 0, i32 1
  store i64 %next_.coerce1, ptr %1, align 8
  %next_1 = load { i64, i64 }, ptr %next_, align 8
  store ptr %this, ptr %this.addr, align 8
  store ptr %read_pos_, ptr %read_pos_.addr, align 8
  store i64 %to_read_, ptr %to_read_.addr, align 8
  store { i64, i64 } %next_1, ptr %next_.addr, align 8
  %this2 = load ptr, ptr %this.addr, align 8
  %2 = load ptr, ptr %read_pos_.addr, align 8
  %_read_pos = getelementptr inbounds %"class.zmq::decoder_base_t", ptr %this2, i32 0, i32 2
  store ptr %2, ptr %_read_pos, align 8
  %3 = load i64, ptr %to_read_.addr, align 8
  %_to_read = getelementptr inbounds %"class.zmq::decoder_base_t", ptr %this2, i32 0, i32 3
  store i64 %3, ptr %_to_read, align 8
  %4 = load { i64, i64 }, ptr %next_.addr, align 8
  %_next = getelementptr inbounds %"class.zmq::decoder_base_t", ptr %this2, i32 0, i32 1
  store { i64, i64 } %4, ptr %_next, align 8
  ret void
}

; Function Attrs: mustprogress uwtable
define linkonce_odr void @_ZN3zmq14decoder_base_tINS_12ws_decoder_tENS_31shared_message_memory_allocatorEEC2Em(ptr noundef nonnull align 8 dereferenceable(88) %this, i64 noundef %buf_size_) unnamed_addr #0 comdat align 2 personality ptr @__gxx_personality_v0 {
entry:
  %this.addr = alloca ptr, align 8
  %buf_size_.addr = alloca i64, align 8
  %exn.slot = alloca ptr, align 8
  %ehselector.slot = alloca i32, align 4
  store ptr %this, ptr %this.addr, align 8
  store i64 %buf_size_, ptr %buf_size_.addr, align 8
  %this1 = load ptr, ptr %this.addr, align 8
  call void @_ZN3zmq9i_decoderC2Ev(ptr noundef nonnull align 8 dereferenceable(8) %this1) #11
  store ptr getelementptr inbounds ({ [8 x ptr] }, ptr @_ZTVN3zmq14decoder_base_tINS_12ws_decoder_tENS_31shared_message_memory_allocatorEEE, i32 0, i32 0, i32 2), ptr %this1, align 8
  %_next = getelementptr inbounds %"class.zmq::decoder_base_t", ptr %this1, i32 0, i32 1
  store { i64, i64 } zeroinitializer, ptr %_next, align 8
  %_read_pos = getelementptr inbounds %"class.zmq::decoder_base_t", ptr %this1, i32 0, i32 2
  store ptr null, ptr %_read_pos, align 8
  %_to_read = getelementptr inbounds %"class.zmq::decoder_base_t", ptr %this1, i32 0, i32 3
  store i64 0, ptr %_to_read, align 8
  %_allocator = getelementptr inbounds %"class.zmq::decoder_base_t", ptr %this1, i32 0, i32 4
  %0 = load i64, ptr %buf_size_.addr, align 8
  invoke void @_ZN3zmq31shared_message_memory_allocatorC1Em(ptr noundef nonnull align 8 dereferenceable(40) %_allocator, i64 noundef %0)
          to label %invoke.cont unwind label %lpad

invoke.cont:                                      ; preds = %entry
  %_allocator2 = getelementptr inbounds %"class.zmq::decoder_base_t", ptr %this1, i32 0, i32 4
  %call = invoke noundef ptr @_ZN3zmq31shared_message_memory_allocator8allocateEv(ptr noundef nonnull align 8 dereferenceable(40) %_allocator2)
          to label %invoke.cont4 unwind label %lpad3

invoke.cont4:                                     ; preds = %invoke.cont
  %_buf = getelementptr inbounds %"class.zmq::decoder_base_t", ptr %this1, i32 0, i32 5
  store ptr %call, ptr %_buf, align 8
  ret void

lpad:                                             ; preds = %entry
  %1 = landingpad { ptr, i32 }
          cleanup
  %2 = extractvalue { ptr, i32 } %1, 0
  store ptr %2, ptr %exn.slot, align 8
  %3 = extractvalue { ptr, i32 } %1, 1
  store i32 %3, ptr %ehselector.slot, align 4
  br label %ehcleanup

lpad3:                                            ; preds = %invoke.cont
  %4 = landingpad { ptr, i32 }
          cleanup
  %5 = extractvalue { ptr, i32 } %4, 0
  store ptr %5, ptr %exn.slot, align 8
  %6 = extractvalue { ptr, i32 } %4, 1
  store i32 %6, ptr %ehselector.slot, align 4
  call void @_ZN3zmq31shared_message_memory_allocatorD1Ev(ptr noundef nonnull align 8 dereferenceable(40) %_allocator) #11
  br label %ehcleanup

ehcleanup:                                        ; preds = %lpad3, %lpad
  call void @_ZN3zmq9i_decoderD2Ev(ptr noundef nonnull align 8 dereferenceable(8) %this1) #11
  br label %eh.resume

eh.resume:                                        ; preds = %ehcleanup
  %exn = load ptr, ptr %exn.slot, align 8
  %sel = load i32, ptr %ehselector.slot, align 4
  %lpad.val = insertvalue { ptr, i32 } poison, ptr %exn, 0
  %lpad.val5 = insertvalue { ptr, i32 } %lpad.val, i32 %sel, 1
  resume { ptr, i32 } %lpad.val5
}

; Function Attrs: mustprogress uwtable
define void @_ZN3zmq12ws_decoder_tC2Emlbb(ptr noundef nonnull align 8 dereferenceable(208) %this, i64 noundef %bufsize_, i64 noundef %maxmsgsize_, i1 noundef zeroext %zero_copy_, i1 noundef zeroext %must_mask_) unnamed_addr #0 align 2 personality ptr @__gxx_personality_v0 {
entry:
  %this.addr = alloca ptr, align 8
  %bufsize_.addr = alloca i64, align 8
  %maxmsgsize_.addr = alloca i64, align 8
  %zero_copy_.addr = alloca i8, align 1
  %must_mask_.addr = alloca i8, align 1
  %rc = alloca i32, align 4
  %exn.slot = alloca ptr, align 8
  %ehselector.slot = alloca i32, align 4
  %errstr = alloca ptr, align 8
  %coerce = alloca { i64, i64 }, align 8
  store ptr %this, ptr %this.addr, align 8
  store i64 %bufsize_, ptr %bufsize_.addr, align 8
  store i64 %maxmsgsize_, ptr %maxmsgsize_.addr, align 8
  %frombool = zext i1 %zero_copy_ to i8
  store i8 %frombool, ptr %zero_copy_.addr, align 1
  %frombool1 = zext i1 %must_mask_ to i8
  store i8 %frombool1, ptr %must_mask_.addr, align 1
  %this2 = load ptr, ptr %this.addr, align 8
  %0 = load i64, ptr %bufsize_.addr, align 8
  call void @_ZN3zmq14decoder_base_tINS_12ws_decoder_tENS_31shared_message_memory_allocatorEEC2Em(ptr noundef nonnull align 8 dereferenceable(88) %this2, i64 noundef %0)
  store ptr getelementptr inbounds ({ [8 x ptr] }, ptr @_ZTVN3zmq12ws_decoder_tE, i32 0, i32 0, i32 2), ptr %this2, align 8
  %_msg_flags = getelementptr inbounds %"class.zmq::ws_decoder_t", ptr %this2, i32 0, i32 2
  store i8 0, ptr %_msg_flags, align 8
  %_zero_copy = getelementptr inbounds %"class.zmq::ws_decoder_t", ptr %this2, i32 0, i32 4
  %1 = load i8, ptr %zero_copy_.addr, align 1
  %tobool = trunc i8 %1 to i1
  %frombool3 = zext i1 %tobool to i8
  store i8 %frombool3, ptr %_zero_copy, align 8
  %_max_msg_size = getelementptr inbounds %"class.zmq::ws_decoder_t", ptr %this2, i32 0, i32 5
  %2 = load i64, ptr %maxmsgsize_.addr, align 8
  store i64 %2, ptr %_max_msg_size, align 8
  %_must_mask = getelementptr inbounds %"class.zmq::ws_decoder_t", ptr %this2, i32 0, i32 6
  %3 = load i8, ptr %must_mask_.addr, align 1
  %tobool4 = trunc i8 %3 to i1
  %frombool5 = zext i1 %tobool4 to i8
  store i8 %frombool5, ptr %_must_mask, align 8
  %_size = getelementptr inbounds %"class.zmq::ws_decoder_t", ptr %this2, i32 0, i32 7
  store i64 0, ptr %_size, align 8
  %_tmpbuf = getelementptr inbounds %"class.zmq::ws_decoder_t", ptr %this2, i32 0, i32 1
  %arraydecay = getelementptr inbounds [8 x i8], ptr %_tmpbuf, i64 0, i64 0
  call void @llvm.memset.p0.i64(ptr align 8 %arraydecay, i8 0, i64 8, i1 false)
  %_in_progress6 = getelementptr inbounds %"class.zmq::ws_decoder_t", ptr %this2, i32 0, i32 3
  %call = invoke noundef i32 @_ZN3zmq5msg_t4initEv(ptr noundef nonnull align 8 dereferenceable(64) %_in_progress6)
          to label %invoke.cont unwind label %lpad

invoke.cont:                                      ; preds = %entry
  store i32 %call, ptr %rc, align 4
  br label %do.body

do.body:                                          ; preds = %invoke.cont
  %4 = load i32, ptr %rc, align 4
  %cmp = icmp eq i32 %4, 0
  %lnot = xor i1 %cmp, true
  br i1 %lnot, label %if.then, label %if.end

if.then:                                          ; preds = %do.body
  %call7 = call ptr @__errno_location() #10
  %5 = load i32, ptr %call7, align 4
  %call8 = call ptr @strerror(i32 noundef %5) #11
  store ptr %call8, ptr %errstr, align 8
  %6 = load ptr, ptr @stderr, align 8
  %7 = load ptr, ptr %errstr, align 8
  %call10 = invoke i32 (ptr, ptr, ...) @fprintf(ptr noundef %6, ptr noundef @.str, ptr noundef %7, ptr noundef @.str.1, i32 noundef 27)
          to label %invoke.cont9 unwind label %lpad

invoke.cont9:                                     ; preds = %if.then
  %8 = load ptr, ptr @stderr, align 8
  %call12 = invoke i32 @fflush(ptr noundef %8)
          to label %invoke.cont11 unwind label %lpad

invoke.cont11:                                    ; preds = %invoke.cont9
  %9 = load ptr, ptr %errstr, align 8
  invoke void @_ZN3zmq9zmq_abortEPKc(ptr noundef %9)
          to label %invoke.cont13 unwind label %lpad

invoke.cont13:                                    ; preds = %invoke.cont11
  br label %if.end

lpad:                                             ; preds = %do.end, %invoke.cont11, %invoke.cont9, %if.then, %entry
  %10 = landingpad { ptr, i32 }
          cleanup
  %11 = extractvalue { ptr, i32 } %10, 0
  store ptr %11, ptr %exn.slot, align 8
  %12 = extractvalue { ptr, i32 } %10, 1
  store i32 %12, ptr %ehselector.slot, align 4
  call void @_ZN3zmq14decoder_base_tINS_12ws_decoder_tENS_31shared_message_memory_allocatorEED2Ev(ptr noundef nonnull align 8 dereferenceable(88) %this2) #11
  br label %eh.resume

if.end:                                           ; preds = %invoke.cont13, %do.body
  br label %do.cond

do.cond:                                          ; preds = %if.end
  br label %do.end

do.end:                                           ; preds = %do.cond
  %_tmpbuf14 = getelementptr inbounds %"class.zmq::ws_decoder_t", ptr %this2, i32 0, i32 1
  %arraydecay15 = getelementptr inbounds [8 x i8], ptr %_tmpbuf14, i64 0, i64 0
  store { i64, i64 } { i64 ptrtoint (ptr @_ZN3zmq12ws_decoder_t12opcode_readyEPKh to i64), i64 0 }, ptr %coerce, align 8
  %13 = getelementptr inbounds { i64, i64 }, ptr %coerce, i32 0, i32 0
  %14 = load i64, ptr %13, align 8
  %15 = getelementptr inbounds { i64, i64 }, ptr %coerce, i32 0, i32 1
  %16 = load i64, ptr %15, align 8
  invoke void @_ZN3zmq14decoder_base_tINS_12ws_decoder_tENS_31shared_message_memory_allocatorEE9next_stepEPvmMS1_FiPKhE(ptr noundef nonnull align 8 dereferenceable(88) %this2, ptr noundef %arraydecay15, i64 noundef 1, i64 %14, i64 %16)
          to label %invoke.cont16 unwind label %lpad

invoke.cont16:                                    ; preds = %do.end
  ret void

eh.resume:                                        ; preds = %lpad
  %exn = load ptr, ptr %exn.slot, align 8
  %sel = load i32, ptr %ehselector.slot, align 4
  %lpad.val = insertvalue { ptr, i32 } poison, ptr %exn, 0
  %lpad.val17 = insertvalue { ptr, i32 } %lpad.val, i32 %sel, 1
  resume { ptr, i32 } %lpad.val17
}