; Function Attrs: mustprogress uwtable
define void @_ZN3zmq12ws_decoder_tC2Emlbb(ptr noundef nonnull align 8 dereferenceable(208) %this, i64 noundef %bufsize_, i64 noundef %maxmsgsize_, i1 noundef zeroext %zero_copy_, i1 noundef zeroext %must_mask_) unnamed_addr #0 align 2 personality ptr @__gxx_personality_v0 {
entry:
  store ptr getelementptr inbounds ({ [8 x ptr] }, ptr @_ZTVN3zmq14decoder_base_tINS_12ws_decoder_tENS_31shared_message_memory_allocatorEEE, i64 0, i32 0, i64 2), ptr %this, align 8
  %_next.i = getelementptr inbounds i8, ptr %this, i64 8
  %_allocator.i = getelementptr inbounds i8, ptr %this, i64 40
  tail call void @llvm.memset.p0.i64(ptr noundef nonnull align 8 dereferenceable(32) %_next.i, i8 0, i64 32, i1 false)
  tail call void @_ZN3zmq31shared_message_memory_allocatorC1Em(ptr noundef nonnull align 8 dereferenceable(40) %_allocator.i, i64 noundef %bufsize_)
  %call.i = invoke noundef ptr @_ZN3zmq31shared_message_memory_allocator8allocateEv(ptr noundef nonnull align 8 dereferenceable(40) %_allocator.i)
          to label %_ZN3zmq14decoder_base_tINS_12ws_decoder_tENS_31shared_message_memory_allocatorEEC2Em.exit unwind label %lpad3.i

common.resume:                                    ; preds = %lpad, %lpad3.i
  %common.resume.op = phi { ptr, i32 } [ %0, %lpad3.i ], [ %4, %lpad ]
  resume { ptr, i32 } %common.resume.op

lpad3.i:                                          ; preds = %entry
  %0 = landingpad { ptr, i32 }
          cleanup
  tail call void @_ZN3zmq31shared_message_memory_allocatorD1Ev(ptr noundef nonnull align 8 dereferenceable(40) %_allocator.i) #13
  br label %common.resume

_ZN3zmq14decoder_base_tINS_12ws_decoder_tENS_31shared_message_memory_allocatorEEC2Em.exit: ; preds = %entry
  %frombool1 = zext i1 %must_mask_ to i8
  %frombool = zext i1 %zero_copy_ to i8
  %_buf.i = getelementptr inbounds i8, ptr %this, i64 80
  store ptr %call.i, ptr %_buf.i, align 8
  store ptr getelementptr inbounds ({ [8 x ptr] }, ptr @_ZTVN3zmq12ws_decoder_tE, i64 0, i32 0, i64 2), ptr %this, align 8
  %_msg_flags = getelementptr inbounds i8, ptr %this, i64 96
  store i8 0, ptr %_msg_flags, align 8
  %_zero_copy = getelementptr inbounds i8, ptr %this, i64 168
  store i8 %frombool, ptr %_zero_copy, align 8
  %_max_msg_size = getelementptr inbounds i8, ptr %this, i64 176
  store i64 %maxmsgsize_, ptr %_max_msg_size, align 8
  %_must_mask = getelementptr inbounds i8, ptr %this, i64 184
  store i8 %frombool1, ptr %_must_mask, align 8
  %_size = getelementptr inbounds i8, ptr %this, i64 192
  store i64 0, ptr %_size, align 8
  %_tmpbuf = getelementptr inbounds i8, ptr %this, i64 88
  store i64 0, ptr %_tmpbuf, align 8
  %_in_progress6 = getelementptr inbounds i8, ptr %this, i64 104
  %call = invoke noundef i32 @_ZN3zmq5msg_t4initEv(ptr noundef nonnull align 8 dereferenceable(64) %_in_progress6)
          to label %invoke.cont unwind label %lpad

invoke.cont:                                      ; preds = %_ZN3zmq14decoder_base_tINS_12ws_decoder_tENS_31shared_message_memory_allocatorEEC2Em.exit
  %cmp.not = icmp eq i32 %call, 0
  br i1 %cmp.not, label %do.end, label %if.then

if.then:                                          ; preds = %invoke.cont
  %call7 = tail call ptr @__errno_location() #14
  %1 = load i32, ptr %call7, align 4
  %call8 = tail call ptr @strerror(i32 noundef %1) #13
  %2 = load ptr, ptr @stderr, align 8
  %call10 = tail call i32 (ptr, ptr, ...) @fprintf(ptr noundef %2, ptr noundef nonnull @.str, ptr noundef %call8, ptr noundef nonnull @.str.1, i32 noundef 27) #15
  %3 = load ptr, ptr @stderr, align 8
  %call12 = tail call i32 @fflush(ptr noundef %3)
  invoke void @_ZN3zmq9zmq_abortEPKc(ptr noundef %call8)
          to label %do.end unwind label %lpad

lpad:                                             ; preds = %if.then, %_ZN3zmq14decoder_base_tINS_12ws_decoder_tENS_31shared_message_memory_allocatorEEC2Em.exit
  %4 = landingpad { ptr, i32 }
          cleanup
  tail call void @_ZN3zmq14decoder_base_tINS_12ws_decoder_tENS_31shared_message_memory_allocatorEED2Ev(ptr noundef nonnull align 8 dereferenceable(88) %this) #13
  br label %common.resume

do.end:                                           ; preds = %if.then, %invoke.cont
  %_read_pos.i = getelementptr inbounds i8, ptr %this, i64 24
  store ptr %_tmpbuf, ptr %_read_pos.i, align 8
  %_to_read.i = getelementptr inbounds i8, ptr %this, i64 32
  store i64 1, ptr %_to_read.i, align 8
  store i64 ptrtoint (ptr @_ZN3zmq12ws_decoder_t12opcode_readyEPKh to i64), ptr %_next.i, align 8
  %_next.repack1.i = getelementptr inbounds i8, ptr %this, i64 16
  store i64 0, ptr %_next.repack1.i, align 8
  ret void
}